target datalayout = "e-m:e-p270:32:32-p271:32:32-p272:64:64-i64:64-i128:128-f80:128-n8:16:32:64-S128"
target triple = "x86_64-pc-linux-gnu"

%struct.SDL_Keymap = type { ptr, ptr, i8, i8, i8, i8, i8 }

; Function Attrs: nounwind uwtable
define hidden void @SDL_DestroyKeymap(ptr noundef %0) #0 {
  %2 = alloca ptr, align 8
  store ptr %0, ptr %2, align 8
  %3 = load ptr, ptr %2, align 8
  %4 = icmp ne ptr %3, null
  br i1 %4, label %6, label %5

5:                                                ; preds = %1
  br label %14

6:                                                ; preds = %1
  %7 = load ptr, ptr %2, align 8
  %8 = getelementptr inbounds nuw %struct.SDL_Keymap, ptr %7, i32 0, i32 0
  %9 = load ptr, ptr %8, align 8
  call void @SDL_DestroyHashTable(ptr noundef %9)
  %10 = load ptr, ptr %2, align 8
  %11 = getelementptr inbounds nuw %struct.SDL_Keymap, ptr %10, i32 0, i32 1
  %12 = load ptr, ptr %11, align 8
  call void @SDL_DestroyHashTable(ptr noundef %12)
  %13 = load ptr, ptr %2, align 8
  call void @SDL_free_REAL(ptr noundef %13)
  br label %14

14:                                               ; preds = %6, %5
  ret void
}

; Function Attrs: nounwind uwtable
define hidden ptr @SDL_CreateKeymap(i1 noundef zeroext %0) #0 {
  %2 = alloca ptr, align 8
  %3 = alloca i8, align 1
  %4 = alloca ptr, align 8
  %5 = alloca i32, align 4
  %6 = zext i1 %0 to i8
  store i8 %6, ptr %3, align 1
  call void @llvm.lifetime.start.p0(i64 8, ptr %4) #4
  %7 = call noalias ptr @SDL_calloc_REAL(i64 noundef 1, i64 noundef 24) #5
  store ptr %7, ptr %4, align 8
  %8 = load ptr, ptr %4, align 8
  %9 = icmp ne ptr %8, null
  br i1 %9, label %11, label %10

10:                                               ; preds = %1
  store ptr null, ptr %2, align 8
  store i32 1, ptr %5, align 4
  br label %36

11:                                               ; preds = %1
  %12 = load i8, ptr %3, align 1, !range !3, !noundef !4
  %13 = trunc i8 %12 to i1
  %14 = load ptr, ptr %4, align 8
  %15 = getelementptr inbounds nuw %struct.SDL_Keymap, ptr %14, i32 0, i32 2
  %16 = zext i1 %13 to i8
  store i8 %16, ptr %15, align 8
  %17 = call ptr @SDL_CreateHashTable(i32 noundef 256, i1 noundef zeroext false, ptr noundef @SDL_HashID, ptr noundef @SDL_KeyMatchID, ptr noundef null, ptr noundef null)
  %18 = load ptr, ptr %4, align 8
  %19 = getelementptr inbounds nuw %struct.SDL_Keymap, ptr %18, i32 0, i32 0
  store ptr %17, ptr %19, align 8
  %20 = call ptr @SDL_CreateHashTable(i32 noundef 256, i1 noundef zeroext false, ptr noundef @SDL_HashID, ptr noundef @SDL_KeyMatchID, ptr noundef null, ptr noundef null)
  %21 = load ptr, ptr %4, align 8
  %22 = getelementptr inbounds nuw %struct.SDL_Keymap, ptr %21, i32 0, i32 1
  store ptr %20, ptr %22, align 8
  %23 = load ptr, ptr %4, align 8
  %24 = getelementptr inbounds nuw %struct.SDL_Keymap, ptr %23, i32 0, i32 0
  %25 = load ptr, ptr %24, align 8
  %26 = icmp ne ptr %25, null
  br i1 %26, label %27, label %32

27:                                               ; preds = %11
  %28 = load ptr, ptr %4, align 8
  %29 = getelementptr inbounds nuw %struct.SDL_Keymap, ptr %28, i32 0, i32 1
  %30 = load ptr, ptr %29, align 8
  %31 = icmp ne ptr %30, null
  br i1 %31, label %34, label %32

32:                                               ; preds = %27, %11
  %33 = load ptr, ptr %4, align 8
  call void @SDL_DestroyKeymap(ptr noundef %33)
  store ptr null, ptr %2, align 8
  store i32 1, ptr %5, align 4
  br label %36

34:                                               ; preds = %27
  %35 = load ptr, ptr %4, align 8
  store ptr %35, ptr %2, align 8
  store i32 1, ptr %5, align 4
  br label %36

36:                                               ; preds = %34, %32, %10
  call void @llvm.lifetime.end.p0(i64 8, ptr %4) #4
  %37 = load ptr, ptr %2, align 8
  ret ptr %37
}