; Function Attrs: nounwind uwtable
define hidden noundef ptr @SDL_CreateKeymap(i1 noundef zeroext %0) local_unnamed_addr #0 {
  %2 = tail call noalias dereferenceable_or_null(24) ptr @SDL_calloc_REAL(i64 noundef 1, i64 noundef 24) #4
  %.not = icmp eq ptr %2, null
  br i1 %.not, label %9, label %3

3:                                                ; preds = %1
  %4 = zext i1 %0 to i8
  %5 = getelementptr inbounds nuw i8, ptr %2, i64 16
  store i8 %4, ptr %5, align 8
  %6 = tail call ptr @SDL_CreateHashTable(i32 noundef 256, i1 noundef zeroext false, ptr noundef nonnull @SDL_HashID, ptr noundef nonnull @SDL_KeyMatchID, ptr noundef null, ptr noundef null) #5
  store ptr %6, ptr %2, align 8
  %7 = tail call ptr @SDL_CreateHashTable(i32 noundef 256, i1 noundef zeroext false, ptr noundef nonnull @SDL_HashID, ptr noundef nonnull @SDL_KeyMatchID, ptr noundef null, ptr noundef null) #5
  %8 = getelementptr inbounds nuw i8, ptr %2, i64 8
  store ptr %7, ptr %8, align 8
  %.not10 = icmp eq ptr %6, null
  %.not11 = icmp eq ptr %7, null
  %or.cond = select i1 %.not10, i1 true, i1 %.not11
  br i1 %or.cond, label %SDL_DestroyKeymap.exit, label %9

SDL_DestroyKeymap.exit:                           ; preds = %3
  tail call void @SDL_DestroyHashTable(ptr noundef %6) #5
  tail call void @SDL_DestroyHashTable(ptr noundef %7) #5
  tail call void @SDL_free_REAL(ptr noundef nonnull %2) #5
  br label %9

9:                                                ; preds = %3, %1, %SDL_DestroyKeymap.exit
  %.0 = phi ptr [ null, %SDL_DestroyKeymap.exit ], [ null, %1 ], [ %2, %3 ]
  ret ptr %.0
}